; ModuleID = '9/565.c'
source_filename = "9/565.c"
target datalayout = "e-m:e-p270:32:32-p271:32:32-p272:64:64-i64:64-f80:128-n8:16:32:64-S128"
target triple = "x86_64-pc-linux-gnu"

@.str = private unnamed_addr constant [3 x i8] c"%d\00", align 1
@.str.1 = private unnamed_addr constant [6 x i8] c"%s %d\00", align 1
@.str.2 = private unnamed_addr constant [4 x i8] c"%s\0A\00", align 1

; Function Attrs: noinline nounwind uwtable
define dso_local i32 @main() #0 {
  %1 = alloca i32, align 4
  %2 = alloca i32, align 4
  %3 = alloca i32, align 4
  %4 = alloca i32, align 4
  %5 = alloca i32, align 4
  %6 = alloca [100 x [10 x i8]], align 16
  %7 = alloca [100 x [10 x i8]], align 16
  %8 = alloca [100 x [10 x i8]], align 16
  %9 = alloca [100 x [10 x i8]], align 16
  %10 = alloca [100 x i64], align 16
  %11 = alloca [100 x i64], align 16
  %12 = alloca [100 x i64], align 16
  %13 = alloca i32, align 4
  %14 = alloca i32, align 4
  store i32 0, i32* %1, align 4
  %15 = bitcast [100 x i64]* %11 to i8*
  call void @llvm.memset.p0i8.i64(i8* align 16 %15, i8 0, i64 800, i1 false)
  %16 = bitcast [100 x i64]* %12 to i8*
  call void @llvm.memset.p0i8.i64(i8* align 16 %16, i8 0, i64 800, i1 false)
  %17 = call i32 (i8*, ...) @__isoc99_scanf(i8* getelementptr inbounds ([3 x i8], [3 x i8]* @.str, i64 0, i64 0), i32* %2)
  store i32 1, i32* %13, align 4
  br label %18

18:                                               ; preds = %31, %0
  %19 = load i32, i32* %13, align 4
  %20 = load i32, i32* %2, align 4
  %21 = icmp sle i32 %19, %20
  br i1 %21, label %22, label %34

22:                                               ; preds = %18
  %23 = load i32, i32* %13, align 4
  %24 = sext i32 %23 to i64
  %25 = getelementptr inbounds [100 x [10 x i8]], [100 x [10 x i8]]* %6, i64 0, i64 %24
  %26 = getelementptr inbounds [10 x i8], [10 x i8]* %25, i64 0, i64 0
  %27 = load i32, i32* %13, align 4
  %28 = sext i32 %27 to i64
  %29 = getelementptr inbounds [100 x i64], [100 x i64]* %10, i64 0, i64 %28
  %30 = call i32 (i8*, ...) @__isoc99_scanf(i8* getelementptr inbounds ([6 x i8], [6 x i8]* @.str.1, i64 0, i64 0), i8* %26, i64* %29)
  br label %31

31:                                               ; preds = %22
  %32 = load i32, i32* %13, align 4
  %33 = add nsw i32 %32, 1
  store i32 %33, i32* %13, align 4
  br label %18

34:                                               ; preds = %18
  store i32 1, i32* %14, align 4
  br label %35

35:                                               ; preds = %80, %34
  %36 = load i32, i32* %14, align 4
  %37 = load i32, i32* %2, align 4
  %38 = icmp sle i32 %36, %37
  br i1 %38, label %39, label %83

39:                                               ; preds = %35
  %40 = load i32, i32* %14, align 4
  %41 = sext i32 %40 to i64
  %42 = getelementptr inbounds [100 x i64], [100 x i64]* %10, i64 0, i64 %41
  %43 = load i64, i64* %42, align 8
  %44 = icmp sge i64 %43, 60
  br i1 %44, label %45, label %62

45:                                               ; preds = %39
  %46 = load i32, i32* %14, align 4
  %47 = sext i32 %46 to i64
  %48 = getelementptr inbounds [100 x i64], [100 x i64]* %10, i64 0, i64 %47
  %49 = load i64, i64* %48, align 8
  %50 = load i32, i32* %14, align 4
  %51 = sext i32 %50 to i64
  %52 = getelementptr inbounds [100 x i64], [100 x i64]* %11, i64 0, i64 %51
  store i64 %49, i64* %52, align 8
  %53 = load i32, i32* %14, align 4
  %54 = sext i32 %53 to i64
  %55 = getelementptr inbounds [100 x [10 x i8]], [100 x [10 x i8]]* %7, i64 0, i64 %54
  %56 = getelementptr inbounds [10 x i8], [10 x i8]* %55, i64 0, i64 0
  %57 = load i32, i32* %14, align 4
  %58 = sext i32 %57 to i64
  %59 = getelementptr inbounds [100 x [10 x i8]], [100 x [10 x i8]]* %6, i64 0, i64 %58
  %60 = getelementptr inbounds [10 x i8], [10 x i8]* %59, i64 0, i64 0
  %61 = call i8* @strcpy(i8* %56, i8* %60) #4
  br label %79

62:                                               ; preds = %39
  %63 = load i32, i32* %14, align 4
  %64 = sext i32 %63 to i64
  %65 = getelementptr inbounds [100 x i64], [100 x i64]* %10, i64 0, i64 %64
  %66 = load i64, i64* %65, align 8
  %67 = load i32, i32* %14, align 4
  %68 = sext i32 %67 to i64
  %69 = getelementptr inbounds [100 x i64], [100 x i64]* %12, i64 0, i64 %68
  store i64 %66, i64* %69, align 8
  %70 = load i32, i32* %14, align 4
  %71 = sext i32 %70 to i64
  %72 = getelementptr inbounds [100 x [10 x i8]], [100 x [10 x i8]]* %8, i64 0, i64 %71
  %73 = getelementptr inbounds [10 x i8], [10 x i8]* %72, i64 0, i64 0
  %74 = load i32, i32* %14, align 4
  %75 = sext i32 %74 to i64
  %76 = getelementptr inbounds [100 x [10 x i8]], [100 x [10 x i8]]* %6, i64 0, i64 %75
  %77 = getelementptr inbounds [10 x i8], [10 x i8]* %76, i64 0, i64 0
  %78 = call i8* @strcpy(i8* %73, i8* %77) #4
  br label %79

79:                                               ; preds = %62, %45
  br label %80

80:                                               ; preds = %79
  %81 = load i32, i32* %14, align 4
  %82 = add nsw i32 %81, 1
  store i32 %82, i32* %14, align 4
  br label %35

83:                                               ; preds = %35
  store i32 101, i32* %3, align 4
  br label %84

84:                                               ; preds = %110, %83
  %85 = load i32, i32* %3, align 4
  %86 = icmp sge i32 %85, 60
  br i1 %86, label %87, label %113

87:                                               ; preds = %84
  store i32 1, i32* %5, align 4
  br label %88

88:                                               ; preds = %106, %87
  %89 = load i32, i32* %5, align 4
  %90 = load i32, i32* %2, align 4
  %91 = icmp sle i32 %89, %90
  br i1 %91, label %92, label %109

92:                                               ; preds = %88
  %93 = load i32, i32* %5, align 4
  %94 = sext i32 %93 to i64
  %95 = getelementptr inbounds [100 x i64], [100 x i64]* %11, i64 0, i64 %94
  %96 = load i64, i64* %95, align 8
  %97 = load i32, i32* %3, align 4
  %98 = sext i32 %97 to i64
  %99 = icmp eq i64 %96, %98
  br i1 %99, label %100, label %106

100:                                              ; preds = %92
  %101 = load i32, i32* %5, align 4
  %102 = sext i32 %101 to i64
  %103 = getelementptr inbounds [100 x [10 x i8]], [100 x [10 x i8]]* %7, i64 0, i64 %102
  %104 = getelementptr inbounds [10 x i8], [10 x i8]* %103, i64 0, i64 0
  %105 = call i32 (i8*, ...) @printf(i8* getelementptr inbounds ([4 x i8], [4 x i8]* @.str.2, i64 0, i64 0), i8* %104)
  br label %106

106:                                              ; preds = %100, %92
  %107 = load i32, i32* %5, align 4
  %108 = add nsw i32 %107, 1
  store i32 %108, i32* %5, align 4
  br label %88

109:                                              ; preds = %88
  br label %110

110:                                              ; preds = %109
  %111 = load i32, i32* %3, align 4
  %112 = add nsw i32 %111, -1
  store i32 %112, i32* %3, align 4
  br label %84

113:                                              ; preds = %84
  store i32 1, i32* %5, align 4
  br label %114

114:                                              ; preds = %130, %113
  %115 = load i32, i32* %5, align 4
  %116 = load i32, i32* %2, align 4
  %117 = icmp sle i32 %115, %116
  br i1 %117, label %118, label %133

118:                                              ; preds = %114
  %119 = load i32, i32* %5, align 4
  %120 = sext i32 %119 to i64
  %121 = getelementptr inbounds [100 x i64], [100 x i64]* %12, i64 0, i64 %120
  %122 = load i64, i64* %121, align 8
  %123 = icmp ne i64 %122, 0
  br i1 %123, label %124, label %130

124:                                              ; preds = %118
  %125 = load i32, i32* %5, align 4
  %126 = sext i32 %125 to i64
  %127 = getelementptr inbounds [100 x [10 x i8]], [100 x [10 x i8]]* %8, i64 0, i64 %126
  %128 = getelementptr inbounds [10 x i8], [10 x i8]* %127, i64 0, i64 0
  %129 = call i32 (i8*, ...) @printf(i8* getelementptr inbounds ([4 x i8], [4 x i8]* @.str.2, i64 0, i64 0), i8* %128)
  br label %130

130:                                              ; preds = %124, %118
  %131 = load i32, i32* %5, align 4
  %132 = add nsw i32 %131, 1
  store i32 %132, i32* %5, align 4
  br label %114

133:                                              ; preds = %114
  %134 = call i32 @getchar()
  %135 = call i32 @getchar()
  %136 = call i32 @getchar()
  %137 = call i32 @getchar()
  %138 = call i32 @getchar()
  %139 = call i32 @getchar()
  %140 = call i32 @getchar()
  %141 = call i32 @getchar()
  %142 = load i32, i32* %1, align 4
  ret i32 %142
}

; Function Attrs: argmemonly nounwind willreturn
declare void @llvm.memset.p0i8.i64(i8* nocapture writeonly, i8, i64, i1 immarg) #1

declare dso_local i32 @__isoc99_scanf(i8*, ...) #2

; Function Attrs: nounwind
declare dso_local i8* @strcpy(i8*, i8*) #3

declare dso_local i32 @printf(i8*, ...) #2

declare dso_local i32 @getchar() #2


!llvm.module.flags = !{!0}
!llvm.ident = !{!1}

!0 = !{i32 1, !"wchar_size", i32 4}
!1 = !{!"clang version 10.0.0-4ubuntu1 "}
